target datalayout = "e-m:e-p270:32:32-p271:32:32-p272:64:64-i64:64-i128:128-f80:128-n8:16:32:64-S128"
target triple = "x86_64-pc-linux-gnu"

%struct.FontManagerNativeIDs = type { ptr, ptr, ptr, ptr, ptr, ptr, ptr, ptr, ptr, ptr, ptr, ptr, ptr, ptr, ptr, ptr, ptr, ptr, ptr, ptr, ptr, ptr, ptr, ptr, ptr, ptr, ptr, ptr, ptr, ptr, ptr, ptr, ptr, ptr, ptr, ptr, ptr }
%struct.JNINativeInterface_ = type { ptr, ptr, ptr, ptr, ptr, ptr, ptr, ptr, ptr, ptr, ptr, ptr, ptr, ptr, ptr, ptr, ptr, ptr, ptr, ptr, ptr, ptr, ptr, ptr, ptr, ptr, ptr, ptr, ptr, ptr, ptr, ptr, ptr, ptr, ptr, ptr, ptr, ptr, ptr, ptr, ptr, ptr, ptr, ptr, ptr, ptr, ptr, ptr, ptr, ptr, ptr, ptr, ptr, ptr, ptr, ptr, ptr, ptr, ptr, ptr, ptr, ptr, ptr, ptr, ptr, ptr, ptr, ptr, ptr, ptr, ptr, ptr, ptr, ptr, ptr, ptr, ptr, ptr, ptr, ptr, ptr, ptr, ptr, ptr, ptr, ptr, ptr, ptr, ptr, ptr, ptr, ptr, ptr, ptr, ptr, ptr, ptr, ptr, ptr, ptr, ptr, ptr, ptr, ptr, ptr, ptr, ptr, ptr, ptr, ptr, ptr, ptr, ptr, ptr, ptr, ptr, ptr, ptr, ptr, ptr, ptr, ptr, ptr, ptr, ptr, ptr, ptr, ptr, ptr, ptr, ptr, ptr, ptr, ptr, ptr, ptr, ptr, ptr, ptr, ptr, ptr, ptr, ptr, ptr, ptr, ptr, ptr, ptr, ptr, ptr, ptr, ptr, ptr, ptr, ptr, ptr, ptr, ptr, ptr, ptr, ptr, ptr, ptr, ptr, ptr, ptr, ptr, ptr, ptr, ptr, ptr, ptr, ptr, ptr, ptr, ptr, ptr, ptr, ptr, ptr, ptr, ptr, ptr, ptr, ptr, ptr, ptr, ptr, ptr, ptr, ptr, ptr, ptr, ptr, ptr, ptr, ptr, ptr, ptr, ptr, ptr, ptr, ptr, ptr, ptr, ptr, ptr, ptr, ptr, ptr, ptr, ptr, ptr, ptr, ptr, ptr, ptr, ptr, ptr, ptr, ptr, ptr, ptr, ptr, ptr, ptr, ptr, ptr, ptr, ptr, ptr, ptr, ptr, ptr, ptr }
%struct.GlyphInfo = type { float, float, i16, i16, i16, i8, float, float, ptr, ptr }

@sunFontIDs = external global %struct.FontManagerNativeIDs, align 8

; Function Attrs: nounwind uwtable
define void @Java_sun_font_FreetypeFontScaler_getGlyphMetricsNative(ptr noundef %0, ptr noundef %1, ptr noundef %2, i64 noundef %3, i64 noundef %4, i32 noundef %5, ptr noundef %6) #0 {
  %8 = alloca ptr, align 8
  %9 = alloca ptr, align 8
  %10 = alloca ptr, align 8
  %11 = alloca i64, align 8
  %12 = alloca i64, align 8
  %13 = alloca i32, align 4
  %14 = alloca ptr, align 8
  %15 = alloca ptr, align 8
  %16 = alloca i64, align 8
  store ptr %0, ptr %8, align 8
  store ptr %1, ptr %9, align 8
  store ptr %2, ptr %10, align 8
  store i64 %3, ptr %11, align 8
  store i64 %4, ptr %12, align 8
  store i32 %5, ptr %13, align 4
  store ptr %6, ptr %14, align 8
  %17 = load ptr, ptr %8, align 8
  %18 = load ptr, ptr %9, align 8
  %19 = load ptr, ptr %10, align 8
  %20 = load i64, ptr %11, align 8
  %21 = load i64, ptr %12, align 8
  %22 = load i32, ptr %13, align 4
  %23 = call i64 @getGlyphImageNativeInternal(ptr noundef %17, ptr noundef %18, ptr noundef %19, i64 noundef %20, i64 noundef %21, i32 noundef %22, i8 noundef zeroext 0)
  store i64 %23, ptr %16, align 8
  %24 = load i64, ptr %16, align 8
  %25 = inttoptr i64 %24 to ptr
  store ptr %25, ptr %15, align 8
  %26 = load ptr, ptr %15, align 8
  %27 = icmp ne ptr %26, null
  br i1 %27, label %28, label %50

28:                                               ; preds = %7
  %29 = load ptr, ptr %8, align 8
  %30 = load ptr, ptr %29, align 8
  %31 = getelementptr inbounds %struct.JNINativeInterface_, ptr %30, i32 0, i32 111
  %32 = load ptr, ptr %31, align 8
  %33 = load ptr, ptr %8, align 8
  %34 = load ptr, ptr %14, align 8
  %35 = load ptr, ptr getelementptr inbounds (%struct.FontManagerNativeIDs, ptr @sunFontIDs, i32 0, i32 19), align 8
  %36 = load ptr, ptr %15, align 8
  %37 = getelementptr inbounds %struct.GlyphInfo, ptr %36, i32 0, i32 0
  %38 = load float, ptr %37, align 8
  call void %32(ptr noundef %33, ptr noundef %34, ptr noundef %35, float noundef %38)
  %39 = load ptr, ptr %8, align 8
  %40 = load ptr, ptr %39, align 8
  %41 = getelementptr inbounds %struct.JNINativeInterface_, ptr %40, i32 0, i32 111
  %42 = load ptr, ptr %41, align 8
  %43 = load ptr, ptr %8, align 8
  %44 = load ptr, ptr %14, align 8
  %45 = load ptr, ptr getelementptr inbounds (%struct.FontManagerNativeIDs, ptr @sunFontIDs, i32 0, i32 20), align 8
  %46 = load ptr, ptr %15, align 8
  %47 = getelementptr inbounds %struct.GlyphInfo, ptr %46, i32 0, i32 1
  %48 = load float, ptr %47, align 4
  call void %42(ptr noundef %43, ptr noundef %44, ptr noundef %45, float noundef %48)
  %49 = load ptr, ptr %15, align 8
  call void @free(ptr noundef %49) #11
  br label %65

50:                                               ; preds = %7
  %51 = load ptr, ptr %8, align 8
  %52 = load ptr, ptr %51, align 8
  %53 = getelementptr inbounds %struct.JNINativeInterface_, ptr %52, i32 0, i32 111
  %54 = load ptr, ptr %53, align 8
  %55 = load ptr, ptr %8, align 8
  %56 = load ptr, ptr %14, align 8
  %57 = load ptr, ptr getelementptr inbounds (%struct.FontManagerNativeIDs, ptr @sunFontIDs, i32 0, i32 19), align 8
  call void %54(ptr noundef %55, ptr noundef %56, ptr noundef %57, float noundef 0.000000e+00)
  %58 = load ptr, ptr %8, align 8
  %59 = load ptr, ptr %58, align 8
  %60 = getelementptr inbounds %struct.JNINativeInterface_, ptr %59, i32 0, i32 111
  %61 = load ptr, ptr %60, align 8
  %62 = load ptr, ptr %8, align 8
  %63 = load ptr, ptr %14, align 8
  %64 = load ptr, ptr getelementptr inbounds (%struct.FontManagerNativeIDs, ptr @sunFontIDs, i32 0, i32 20), align 8
  call void %61(ptr noundef %62, ptr noundef %63, ptr noundef %64, float noundef 0.000000e+00)
  br label %65

65:                                               ; preds = %50, %28
  ret void
}