; Function Attrs: nounwind uwtable
define void @Java_sun_font_FreetypeFontScaler_getGlyphMetricsNative(ptr noundef %0, ptr noundef %1, ptr noundef %2, i64 noundef %3, i64 noundef %4, i32 noundef %5, ptr noundef %6) local_unnamed_addr #0 {
  %8 = tail call fastcc i64 @getGlyphImageNativeInternal(ptr noundef %0, ptr noundef %1, ptr noundef %2, i64 noundef %3, i64 noundef %4, i32 noundef %5, i8 noundef zeroext 0)
  %.not = icmp eq i64 %8, 0
  br i1 %.not, label %22, label %9

9:                                                ; preds = %7
  %10 = inttoptr i64 %8 to ptr
  %11 = load ptr, ptr %0, align 8
  %12 = getelementptr inbounds i8, ptr %11, i64 888
  %13 = load ptr, ptr %12, align 8
  %14 = load ptr, ptr getelementptr inbounds (i8, ptr @sunFontIDs, i64 152), align 8
  %15 = load float, ptr %10, align 8
  tail call void %13(ptr noundef nonnull %0, ptr noundef %6, ptr noundef %14, float noundef %15) #19
  %16 = load ptr, ptr %0, align 8
  %17 = getelementptr inbounds i8, ptr %16, i64 888
  %18 = load ptr, ptr %17, align 8
  %19 = load ptr, ptr getelementptr inbounds (i8, ptr @sunFontIDs, i64 160), align 8
  %20 = getelementptr inbounds i8, ptr %10, i64 4
  %21 = load float, ptr %20, align 4
  tail call void %18(ptr noundef nonnull %0, ptr noundef %6, ptr noundef %19, float noundef %21) #19
  tail call void @free(ptr noundef %10) #19
  br label %31

22:                                               ; preds = %7
  %23 = load ptr, ptr %0, align 8
  %24 = getelementptr inbounds i8, ptr %23, i64 888
  %25 = load ptr, ptr %24, align 8
  %26 = load ptr, ptr getelementptr inbounds (i8, ptr @sunFontIDs, i64 152), align 8
  tail call void %25(ptr noundef nonnull %0, ptr noundef %6, ptr noundef %26, float noundef 0.000000e+00) #19
  %27 = load ptr, ptr %0, align 8
  %28 = getelementptr inbounds i8, ptr %27, i64 888
  %29 = load ptr, ptr %28, align 8
  %30 = load ptr, ptr getelementptr inbounds (i8, ptr @sunFontIDs, i64 160), align 8
  tail call void %29(ptr noundef nonnull %0, ptr noundef %6, ptr noundef %30, float noundef 0.000000e+00) #19
  br label %31

31:                                               ; preds = %22, %9
  ret void
}